target datalayout = "e-m:e-p270:32:32-p271:32:32-p272:64:64-i64:64-i128:128-f80:128-n8:16:32:64-S128"
target triple = "x86_64-pc-linux-gnu"

%struct.strbuf = type { i64, i64, ptr }
%struct.notes_tree = type { ptr, ptr, ptr, ptr, ptr, ptr, i32, i32 }
%struct.option = type { i32, i32, ptr, ptr, ptr, ptr, i32, ptr, i64, ptr, i64, ptr }

@.str.10 = private unnamed_addr constant [7 x i8] c"remove\00", align 1
@the_repository = external global ptr, align 8
@default_notes_tree = external global %struct.notes_tree, align 8
@.str.19 = private unnamed_addr constant [12 x i8] c"refs/notes/\00", align 1
@.str.20 = private unnamed_addr constant [52 x i8] c"refusing to %s notes in %s (outside of refs/notes/)\00", align 1
@.str.41 = private unnamed_addr constant [5 x i8] c"HEAD\00", align 1
@.str.71 = private unnamed_addr constant [6 x i8] c"stdin\00", align 1
@stdin = external global ptr, align 8
@.str.132 = private unnamed_addr constant [15 x i8] c"ignore-missing\00", align 1
@.str.133 = private unnamed_addr constant [52 x i8] c"attempt to remove non-existent note is not an error\00", align 1
@.str.134 = private unnamed_addr constant [42 x i8] c"read object names from the standard input\00", align 1
@git_notes_remove_usage = internal constant [2 x ptr] [ptr @.str.136, ptr null], align 16
@__const.remove_cmd.sb = private unnamed_addr constant %struct.strbuf { i64 0, i64 0, ptr @strbuf_slopbuf }, align 8
@.str.135 = private unnamed_addr constant [36 x i8] c"Notes removed by 'git notes remove'\00", align 1

; Function Attrs: nounwind uwtable
define internal ptr @init_notes_check(ptr noundef %0, i32 noundef %1) #0 {
  %3 = alloca ptr, align 8
  %4 = alloca i32, align 4
  %5 = alloca ptr, align 8
  %6 = alloca ptr, align 8
  store ptr %0, ptr %3, align 8, !tbaa !11
  store i32 %1, ptr %4, align 4, !tbaa !4
  call void @llvm.lifetime.start.p0(i64 8, ptr %5) #11
  call void @llvm.lifetime.start.p0(i64 8, ptr %6) #11
  %7 = load i32, ptr %4, align 4, !tbaa !4
  call void @init_notes(ptr noundef null, ptr noundef null, ptr noundef null, i32 noundef %7)
  store ptr @default_notes_tree, ptr %5, align 8, !tbaa !32
  %8 = load i32, ptr %4, align 4, !tbaa !4
  %9 = and i32 %8, 2
  %10 = icmp ne i32 %9, 0
  br i1 %10, label %11, label %15

11:                                               ; preds = %2
  %12 = load ptr, ptr %5, align 8, !tbaa !32
  %13 = getelementptr inbounds nuw %struct.notes_tree, ptr %12, i32 0, i32 4
  %14 = load ptr, ptr %13, align 8, !tbaa !61
  br label %19

15:                                               ; preds = %2
  %16 = load ptr, ptr %5, align 8, !tbaa !32
  %17 = getelementptr inbounds nuw %struct.notes_tree, ptr %16, i32 0, i32 3
  %18 = load ptr, ptr %17, align 8, !tbaa !65
  br label %19

19:                                               ; preds = %15, %11
  %20 = phi ptr [ %14, %11 ], [ %18, %15 ]
  store ptr %20, ptr %6, align 8, !tbaa !11
  %21 = load ptr, ptr %6, align 8, !tbaa !11
  %22 = call i32 @starts_with(ptr noundef %21, ptr noundef @.str.19)
  %23 = icmp ne i32 %22, 0
  br i1 %23, label %28, label %24

24:                                               ; preds = %19
  %25 = call ptr @_(ptr noundef @.str.20)
  %26 = load ptr, ptr %3, align 8, !tbaa !11
  %27 = load ptr, ptr %6, align 8, !tbaa !11
  call void (ptr, ...) @die(ptr noundef %25, ptr noundef %26, ptr noundef %27) #12
  unreachable

28:                                               ; preds = %19
  %29 = load ptr, ptr %5, align 8, !tbaa !32
  call void @llvm.lifetime.end.p0(i64 8, ptr %6) #11
  call void @llvm.lifetime.end.p0(i64 8, ptr %5) #11
  ret ptr %29
}

; Function Attrs: nounwind uwtable
define internal i32 @remove_cmd(i32 noundef %0, ptr noundef %1, ptr noundef %2, ptr noundef %3) #0 {
  %5 = alloca i32, align 4
  %6 = alloca ptr, align 8
  %7 = alloca ptr, align 8
  %8 = alloca ptr, align 8
  %9 = alloca i32, align 4
  %10 = alloca i32, align 4
  %11 = alloca [3 x %struct.option], align 16
  %12 = alloca ptr, align 8
  %13 = alloca i32, align 4
  %14 = alloca %struct.strbuf, align 8
  store i32 %0, ptr %5, align 4, !tbaa !4
  store ptr %1, ptr %6, align 8, !tbaa !8
  store ptr %2, ptr %7, align 8, !tbaa !11
  store ptr %3, ptr %8, align 8, !tbaa !13
  call void @llvm.lifetime.start.p0(i64 4, ptr %9) #11
  store i32 0, ptr %9, align 4, !tbaa !4
  call void @llvm.lifetime.start.p0(i64 4, ptr %10) #11
  store i32 0, ptr %10, align 4, !tbaa !4
  call void @llvm.lifetime.start.p0(i64 264, ptr %11) #11
  %15 = getelementptr inbounds nuw %struct.option, ptr %11, i32 0, i32 0
  store i32 5, ptr %15, align 8, !tbaa !16
  %16 = getelementptr inbounds nuw %struct.option, ptr %11, i32 0, i32 1
  store i32 0, ptr %16, align 4, !tbaa !19
  %17 = getelementptr inbounds nuw %struct.option, ptr %11, i32 0, i32 2
  store ptr @.str.132, ptr %17, align 8, !tbaa !20
  %18 = getelementptr inbounds nuw %struct.option, ptr %11, i32 0, i32 3
  store ptr %9, ptr %18, align 8, !tbaa !21
  %19 = getelementptr inbounds nuw %struct.option, ptr %11, i32 0, i32 4
  store ptr null, ptr %19, align 8, !tbaa !22
  %20 = getelementptr inbounds nuw %struct.option, ptr %11, i32 0, i32 5
  store ptr @.str.133, ptr %20, align 8, !tbaa !23
  %21 = getelementptr inbounds nuw %struct.option, ptr %11, i32 0, i32 6
  store i32 2, ptr %21, align 8, !tbaa !24
  %22 = getelementptr i8, ptr %11, i64 44
  call void @llvm.memset.p0.i64(ptr align 4 %22, i8 0, i64 4, i1 false)
  %23 = getelementptr inbounds nuw %struct.option, ptr %11, i32 0, i32 7
  store ptr null, ptr %23, align 8, !tbaa !25
  %24 = getelementptr inbounds nuw %struct.option, ptr %11, i32 0, i32 8
  store i64 1, ptr %24, align 8, !tbaa !26
  %25 = getelementptr inbounds nuw %struct.option, ptr %11, i32 0, i32 9
  store ptr null, ptr %25, align 8, !tbaa !27
  %26 = getelementptr inbounds nuw %struct.option, ptr %11, i32 0, i32 10
  store i64 0, ptr %26, align 8, !tbaa !28
  %27 = getelementptr inbounds nuw %struct.option, ptr %11, i32 0, i32 11
  store ptr null, ptr %27, align 8, !tbaa !29
  %28 = getelementptr inbounds %struct.option, ptr %11, i64 1
  %29 = getelementptr inbounds nuw %struct.option, ptr %28, i32 0, i32 0
  store i32 9, ptr %29, align 8, !tbaa !16
  %30 = getelementptr inbounds nuw %struct.option, ptr %28, i32 0, i32 1
  store i32 0, ptr %30, align 4, !tbaa !19
  %31 = getelementptr inbounds nuw %struct.option, ptr %28, i32 0, i32 2
  store ptr @.str.71, ptr %31, align 8, !tbaa !20
  %32 = getelementptr inbounds nuw %struct.option, ptr %28, i32 0, i32 3
  store ptr %10, ptr %32, align 8, !tbaa !21
  %33 = getelementptr inbounds nuw %struct.option, ptr %28, i32 0, i32 4
  store ptr null, ptr %33, align 8, !tbaa !22
  %34 = getelementptr inbounds nuw %struct.option, ptr %28, i32 0, i32 5
  store ptr @.str.134, ptr %34, align 8, !tbaa !23
  %35 = getelementptr inbounds nuw %struct.option, ptr %28, i32 0, i32 6
  store i32 2, ptr %35, align 8, !tbaa !24
  %36 = getelementptr i8, ptr %28, i64 44
  call void @llvm.memset.p0.i64(ptr align 4 %36, i8 0, i64 4, i1 false)
  %37 = getelementptr inbounds nuw %struct.option, ptr %28, i32 0, i32 7
  store ptr null, ptr %37, align 8, !tbaa !25
  %38 = getelementptr inbounds nuw %struct.option, ptr %28, i32 0, i32 8
  store i64 1, ptr %38, align 8, !tbaa !26
  %39 = getelementptr inbounds nuw %struct.option, ptr %28, i32 0, i32 9
  store ptr null, ptr %39, align 8, !tbaa !27
  %40 = getelementptr inbounds nuw %struct.option, ptr %28, i32 0, i32 10
  store i64 0, ptr %40, align 8, !tbaa !28
  %41 = getelementptr inbounds nuw %struct.option, ptr %28, i32 0, i32 11
  store ptr null, ptr %41, align 8, !tbaa !29
  %42 = getelementptr inbounds %struct.option, ptr %11, i64 2
  call void @llvm.memset.p0.i64(ptr align 8 %42, i8 0, i64 88, i1 false)
  %43 = getelementptr inbounds nuw %struct.option, ptr %42, i32 0, i32 0
  store i32 0, ptr %43, align 8, !tbaa !16
  call void @llvm.lifetime.start.p0(i64 8, ptr %12) #11
  call void @llvm.lifetime.start.p0(i64 4, ptr %13) #11
  store i32 0, ptr %13, align 4, !tbaa !4
  %44 = load i32, ptr %5, align 4, !tbaa !4
  %45 = load ptr, ptr %6, align 8, !tbaa !8
  %46 = load ptr, ptr %7, align 8, !tbaa !11
  %47 = getelementptr inbounds [3 x %struct.option], ptr %11, i64 0, i64 0
  %48 = call i32 @parse_options(i32 noundef %44, ptr noundef %45, ptr noundef %46, ptr noundef %47, ptr noundef @git_notes_remove_usage, i32 noundef 0)
  store i32 %48, ptr %5, align 4, !tbaa !4
  %49 = call ptr @init_notes_check(ptr noundef @.str.10, i32 noundef 2)
  store ptr %49, ptr %12, align 8, !tbaa !32
  %50 = load i32, ptr %5, align 4, !tbaa !4
  %51 = icmp ne i32 %50, 0
  br i1 %51, label %59, label %52

52:                                               ; preds = %4
  %53 = load i32, ptr %10, align 4, !tbaa !4
  %54 = icmp ne i32 %53, 0
  br i1 %54, label %59, label %55

55:                                               ; preds = %52
  %56 = load ptr, ptr %12, align 8, !tbaa !32
  %57 = load i32, ptr %9, align 4, !tbaa !4
  %58 = call i32 @remove_one_note(ptr noundef %56, ptr noundef @.str.41, i32 noundef %57)
  store i32 %58, ptr %13, align 4, !tbaa !4
  br label %75

59:                                               ; preds = %52, %4
  br label %60

60:                                               ; preds = %64, %59
  %61 = load ptr, ptr %6, align 8, !tbaa !8
  %62 = load ptr, ptr %61, align 8, !tbaa !11
  %63 = icmp ne ptr %62, null
  br i1 %63, label %64, label %74

64:                                               ; preds = %60
  %65 = load ptr, ptr %12, align 8, !tbaa !32
  %66 = load ptr, ptr %6, align 8, !tbaa !8
  %67 = load ptr, ptr %66, align 8, !tbaa !11
  %68 = load i32, ptr %9, align 4, !tbaa !4
  %69 = call i32 @remove_one_note(ptr noundef %65, ptr noundef %67, i32 noundef %68)
  %70 = load i32, ptr %13, align 4, !tbaa !4
  %71 = or i32 %70, %69
  store i32 %71, ptr %13, align 4, !tbaa !4
  %72 = load ptr, ptr %6, align 8, !tbaa !8
  %73 = getelementptr inbounds nuw ptr, ptr %72, i32 1
  store ptr %73, ptr %6, align 8, !tbaa !8
  br label %60, !llvm.loop !55

74:                                               ; preds = %60
  br label %75

75:                                               ; preds = %74, %55
  %76 = load i32, ptr %10, align 4, !tbaa !4
  %77 = icmp ne i32 %76, 0
  br i1 %77, label %78, label %92

78:                                               ; preds = %75
  call void @llvm.lifetime.start.p0(i64 24, ptr %14) #11
  call void @llvm.memcpy.p0.p0.i64(ptr align 8 %14, ptr align 8 @__const.remove_cmd.sb, i64 24, i1 false)
  br label %79

79:                                               ; preds = %83, %78
  %80 = load ptr, ptr @stdin, align 8, !tbaa !39
  %81 = call i32 @strbuf_getwholeline(ptr noundef %14, ptr noundef %80, i32 noundef 10)
  %82 = icmp ne i32 %81, -1
  br i1 %82, label %83, label %91

83:                                               ; preds = %79
  call void @strbuf_rtrim(ptr noundef %14)
  %84 = load ptr, ptr %12, align 8, !tbaa !32
  %85 = getelementptr inbounds nuw %struct.strbuf, ptr %14, i32 0, i32 2
  %86 = load ptr, ptr %85, align 8, !tbaa !30
  %87 = load i32, ptr %9, align 4, !tbaa !4
  %88 = call i32 @remove_one_note(ptr noundef %84, ptr noundef %86, i32 noundef %87)
  %89 = load i32, ptr %13, align 4, !tbaa !4
  %90 = or i32 %89, %88
  store i32 %90, ptr %13, align 4, !tbaa !4
  br label %79, !llvm.loop !57

91:                                               ; preds = %79
  call void @strbuf_release(ptr noundef %14)
  call void @llvm.lifetime.end.p0(i64 24, ptr %14) #11
  br label %92

92:                                               ; preds = %91, %75
  %93 = load i32, ptr %13, align 4, !tbaa !4
  %94 = icmp ne i32 %93, 0
  br i1 %94, label %98, label %95

95:                                               ; preds = %92
  %96 = load ptr, ptr @the_repository, align 8, !tbaa !13
  %97 = load ptr, ptr %12, align 8, !tbaa !32
  call void @commit_notes(ptr noundef %96, ptr noundef %97, ptr noundef @.str.135)
  br label %98

98:                                               ; preds = %95, %92
  %99 = load ptr, ptr %12, align 8, !tbaa !32
  call void @free_notes(ptr noundef %99)
  %100 = load i32, ptr %13, align 4, !tbaa !4
  call void @llvm.lifetime.end.p0(i64 4, ptr %13) #11
  call void @llvm.lifetime.end.p0(i64 8, ptr %12) #11
  call void @llvm.lifetime.end.p0(i64 264, ptr %11) #11
  call void @llvm.lifetime.end.p0(i64 4, ptr %10) #11
  call void @llvm.lifetime.end.p0(i64 4, ptr %9) #11
  ret i32 %100
}