; Function Attrs: nounwind uwtable
define internal i32 @remove_cmd(i32 noundef %0, ptr noundef %1, ptr noundef %2, ptr readnone captures(none) %3) #0 {
  %5 = alloca i32, align 4
  %6 = alloca i32, align 4
  %7 = alloca [3 x %struct.option], align 16
  %8 = alloca %struct.strbuf, align 8
  call void @llvm.lifetime.start.p0(i64 4, ptr nonnull %5) #16
  store i32 0, ptr %5, align 4, !tbaa !24
  call void @llvm.lifetime.start.p0(i64 4, ptr nonnull %6) #16
  store i32 0, ptr %6, align 4, !tbaa !24
  call void @llvm.lifetime.start.p0(i64 264, ptr nonnull %7) #16
  store i32 5, ptr %7, align 16, !tbaa !10
  %9 = getelementptr inbounds nuw i8, ptr %7, i64 4
  store i32 0, ptr %9, align 4, !tbaa !14
  %10 = getelementptr inbounds nuw i8, ptr %7, i64 8
  store ptr @.str.132, ptr %10, align 8, !tbaa !15
  %11 = getelementptr inbounds nuw i8, ptr %7, i64 16
  store ptr %5, ptr %11, align 16, !tbaa !16
  %12 = getelementptr inbounds nuw i8, ptr %7, i64 24
  store ptr null, ptr %12, align 8, !tbaa !17
  %13 = getelementptr inbounds nuw i8, ptr %7, i64 32
  store ptr @.str.133, ptr %13, align 16, !tbaa !18
  %14 = getelementptr inbounds nuw i8, ptr %7, i64 40
  store i32 2, ptr %14, align 8, !tbaa !25
  %15 = getelementptr inbounds nuw i8, ptr %7, i64 44
  store i32 0, ptr %15, align 4
  %16 = getelementptr inbounds nuw i8, ptr %7, i64 48
  store ptr null, ptr %16, align 16, !tbaa !26
  %17 = getelementptr inbounds nuw i8, ptr %7, i64 56
  store i64 1, ptr %17, align 8, !tbaa !27
  %18 = getelementptr inbounds nuw i8, ptr %7, i64 64
  %19 = getelementptr inbounds nuw i8, ptr %7, i64 88
  call void @llvm.memset.p0.i64(ptr noundef nonnull align 16 dereferenceable(24) %18, i8 0, i64 24, i1 false)
  store i32 9, ptr %19, align 8, !tbaa !10
  %20 = getelementptr inbounds nuw i8, ptr %7, i64 92
  store i32 0, ptr %20, align 4, !tbaa !14
  %21 = getelementptr inbounds nuw i8, ptr %7, i64 96
  store ptr @.str.71, ptr %21, align 16, !tbaa !15
  %22 = getelementptr inbounds nuw i8, ptr %7, i64 104
  store ptr %6, ptr %22, align 8, !tbaa !16
  %23 = getelementptr inbounds nuw i8, ptr %7, i64 112
  store ptr null, ptr %23, align 16, !tbaa !17
  %24 = getelementptr inbounds nuw i8, ptr %7, i64 120
  store ptr @.str.134, ptr %24, align 8, !tbaa !18
  %25 = getelementptr inbounds nuw i8, ptr %7, i64 128
  store i32 2, ptr %25, align 16, !tbaa !25
  %26 = getelementptr inbounds nuw i8, ptr %7, i64 132
  store i32 0, ptr %26, align 4
  %27 = getelementptr inbounds nuw i8, ptr %7, i64 136
  store ptr null, ptr %27, align 8, !tbaa !26
  %28 = getelementptr inbounds nuw i8, ptr %7, i64 144
  store i64 1, ptr %28, align 16, !tbaa !27
  %29 = getelementptr inbounds nuw i8, ptr %7, i64 152
  call void @llvm.memset.p0.i64(ptr noundef nonnull align 8 dereferenceable(112) %29, i8 0, i64 112, i1 false)
  %30 = call i32 @parse_options(i32 noundef %0, ptr noundef %1, ptr noundef %2, ptr noundef nonnull %7, ptr noundef nonnull @git_notes_remove_usage, i32 noundef 0) #16
  call void @init_notes(ptr noundef null, ptr noundef null, ptr noundef null, i32 noundef 2) #16
  %.val8.i = load ptr, ptr getelementptr inbounds nuw (i8, ptr @default_notes_tree, i64 32), align 8
  %31 = call i32 @starts_with(ptr noundef %.val8.i, ptr noundef nonnull @.str.19) #16
  %.not7.i = icmp eq i32 %31, 0
  br i1 %.not7.i, label %32, label %init_notes_check.exit

32:                                               ; preds = %4
  %33 = call fastcc ptr @_(ptr noundef nonnull @.str.20)
  call void (ptr, ...) @die(ptr noundef %33, ptr noundef nonnull @.str.10, ptr noundef %.val8.i) #17
  unreachable

init_notes_check.exit:                            ; preds = %4
  %34 = icmp ne i32 %30, 0
  %35 = load i32, ptr %6, align 4
  %36 = icmp ne i32 %35, 0
  %or.cond = select i1 %34, i1 true, i1 %36
  br i1 %or.cond, label %.preheader, label %38

.preheader:                                       ; preds = %init_notes_check.exit
  %37 = load ptr, ptr %1, align 8, !tbaa !4
  %.not21 = icmp eq ptr %37, null
  br i1 %.not21, label %.loopexit, label %.lr.ph

38:                                               ; preds = %init_notes_check.exit
  %39 = load i32, ptr %5, align 4, !tbaa !24
  %40 = call fastcc i32 @remove_one_note(ptr noundef nonnull @.str.41, i32 noundef %39)
  br label %.loopexit

.lr.ph:                                           ; preds = %.preheader, %.lr.ph
  %41 = phi ptr [ %46, %.lr.ph ], [ %37, %.preheader ]
  %.123 = phi i32 [ %44, %.lr.ph ], [ 0, %.preheader ]
  %.01622 = phi ptr [ %45, %.lr.ph ], [ %1, %.preheader ]
  %42 = load i32, ptr %5, align 4, !tbaa !24
  %43 = call fastcc i32 @remove_one_note(ptr noundef nonnull %41, i32 noundef %42)
  %44 = or i32 %43, %.123
  %45 = getelementptr inbounds nuw i8, ptr %.01622, i64 8
  %46 = load ptr, ptr %45, align 8, !tbaa !4
  %.not = icmp eq ptr %46, null
  br i1 %.not, label %.loopexit, label %.lr.ph, !llvm.loop !77

.loopexit:                                        ; preds = %.lr.ph, %.preheader, %38
  %.0 = phi i32 [ %40, %38 ], [ 0, %.preheader ], [ %44, %.lr.ph ]
  %47 = load i32, ptr %6, align 4, !tbaa !24
  %.not18 = icmp eq i32 %47, 0
  br i1 %.not18, label %59, label %48

48:                                               ; preds = %.loopexit
  call void @llvm.lifetime.start.p0(i64 24, ptr nonnull %8) #16
  call void @llvm.memcpy.p0.p0.i64(ptr noundef nonnull align 8 dereferenceable(24) %8, ptr noundef nonnull align 8 dereferenceable(24) @__const.remove_cmd.sb, i64 24, i1 false)
  %49 = load ptr, ptr @stdin, align 8, !tbaa !31
  %50 = call i32 @strbuf_getwholeline(ptr noundef nonnull %8, ptr noundef %49, i32 noundef 10) #16
  %.not1924 = icmp eq i32 %50, -1
  br i1 %.not1924, label %._crit_edge, label %.lr.ph26

.lr.ph26:                                         ; preds = %48
  %51 = getelementptr inbounds nuw i8, ptr %8, i64 16
  br label %52

52:                                               ; preds = %.lr.ph26, %52
  %.325 = phi i32 [ %.0, %.lr.ph26 ], [ %56, %52 ]
  call void @strbuf_rtrim(ptr noundef nonnull %8) #16
  %53 = load ptr, ptr %51, align 8, !tbaa !22
  %54 = load i32, ptr %5, align 4, !tbaa !24
  %55 = call fastcc i32 @remove_one_note(ptr noundef %53, i32 noundef %54)
  %56 = or i32 %55, %.325
  %57 = load ptr, ptr @stdin, align 8, !tbaa !31
  %58 = call i32 @strbuf_getwholeline(ptr noundef nonnull %8, ptr noundef %57, i32 noundef 10) #16
  %.not19 = icmp eq i32 %58, -1
  br i1 %.not19, label %._crit_edge, label %52, !llvm.loop !78

._crit_edge:                                      ; preds = %52, %48
  %.3.lcssa = phi i32 [ %.0, %48 ], [ %56, %52 ]
  call void @strbuf_release(ptr noundef nonnull %8) #16
  call void @llvm.lifetime.end.p0(i64 24, ptr nonnull %8) #16
  br label %59

59:                                               ; preds = %._crit_edge, %.loopexit
  %.2 = phi i32 [ %.3.lcssa, %._crit_edge ], [ %.0, %.loopexit ]
  %.not20 = icmp eq i32 %.2, 0
  br i1 %.not20, label %60, label %62

60:                                               ; preds = %59
  %61 = load ptr, ptr @the_repository, align 8, !tbaa !20
  call void @commit_notes(ptr noundef %61, ptr noundef nonnull @default_notes_tree, ptr noundef nonnull @.str.135) #16
  br label %62

62:                                               ; preds = %60, %59
  call void @free_notes(ptr noundef nonnull @default_notes_tree) #16
  call void @llvm.lifetime.end.p0(i64 264, ptr nonnull %7) #16
  call void @llvm.lifetime.end.p0(i64 4, ptr nonnull %6) #16
  call void @llvm.lifetime.end.p0(i64 4, ptr nonnull %5) #16
  ret i32 %.2
}